target datalayout = "e-m:e-p270:32:32-p271:32:32-p272:64:64-i64:64-i128:128-f80:128-n8:16:32:64-S128"
target triple = "x86_64-pc-linux-gnu"

%class.permutation = type { %class.svector, %class.svector }
%class.svector = type { %class.vector }
%class.vector = type { ptr }

; Function Attrs: mustprogress nounwind uwtable
define linkonce_odr hidden noundef nonnull align 4 dereferenceable(4) ptr @_ZN6vectorIjLb0EjEixEj(ptr noundef nonnull align 8 dereferenceable(8) %0, i32 noundef %1) #5 comdat align 2 {
  %3 = alloca ptr, align 8
  %4 = alloca i32, align 4
  store ptr %0, ptr %3, align 8, !tbaa !14
  store i32 %1, ptr %4, align 4, !tbaa !8
  %5 = load ptr, ptr %3, align 8
  %6 = getelementptr inbounds nuw %class.vector, ptr %5, i32 0, i32 0
  %7 = load ptr, ptr %6, align 8, !tbaa !16
  %8 = load i32, ptr %4, align 4, !tbaa !8
  %9 = zext i32 %8 to i64
  %10 = getelementptr inbounds nuw i32, ptr %7, i64 %9
  ret ptr %10
}

; Function Attrs: mustprogress uwtable
define hidden void @_ZN11permutation10move_afterEjj(ptr noundef nonnull align 8 dereferenceable(16) %0, i32 noundef %1, i32 noundef %2) #4 align 2 {
  %4 = alloca ptr, align 8
  %5 = alloca i32, align 4
  %6 = alloca i32, align 4
  %7 = alloca i32, align 4
  %8 = alloca i32, align 4
  store ptr %0, ptr %4, align 8, !tbaa !3
  store i32 %1, ptr %5, align 4, !tbaa !8
  store i32 %2, ptr %6, align 4, !tbaa !8
  %9 = load ptr, ptr %4, align 8
  %10 = load i32, ptr %5, align 4, !tbaa !8
  %11 = load i32, ptr %6, align 4, !tbaa !8
  %12 = icmp uge i32 %10, %11
  br i1 %12, label %13, label %14

13:                                               ; preds = %3
  br label %53

14:                                               ; preds = %3
  call void @llvm.lifetime.start.p0(i64 4, ptr %7) #3
  %15 = getelementptr inbounds nuw %class.permutation, ptr %9, i32 0, i32 0
  %16 = load i32, ptr %5, align 4, !tbaa !8
  %17 = call noundef nonnull align 4 dereferenceable(4) ptr @_ZN6vectorIjLb0EjEixEj(ptr noundef nonnull align 8 dereferenceable(8) %15, i32 noundef %16)
  %18 = load i32, ptr %17, align 4, !tbaa !8
  store i32 %18, ptr %7, align 4, !tbaa !8
  call void @llvm.lifetime.start.p0(i64 4, ptr %8) #3
  %19 = load i32, ptr %5, align 4, !tbaa !8
  store i32 %19, ptr %8, align 4, !tbaa !8
  br label %20

20:                                               ; preds = %41, %14
  %21 = load i32, ptr %8, align 4, !tbaa !8
  %22 = load i32, ptr %6, align 4, !tbaa !8
  %23 = icmp ult i32 %21, %22
  br i1 %23, label %25, label %24

24:                                               ; preds = %20
  call void @llvm.lifetime.end.p0(i64 4, ptr %8) #3
  br label %44

25:                                               ; preds = %20
  %26 = getelementptr inbounds nuw %class.permutation, ptr %9, i32 0, i32 0
  %27 = load i32, ptr %8, align 4, !tbaa !8
  %28 = add i32 %27, 1
  %29 = call noundef nonnull align 4 dereferenceable(4) ptr @_ZN6vectorIjLb0EjEixEj(ptr noundef nonnull align 8 dereferenceable(8) %26, i32 noundef %28)
  %30 = load i32, ptr %29, align 4, !tbaa !8
  %31 = getelementptr inbounds nuw %class.permutation, ptr %9, i32 0, i32 0
  %32 = load i32, ptr %8, align 4, !tbaa !8
  %33 = call noundef nonnull align 4 dereferenceable(4) ptr @_ZN6vectorIjLb0EjEixEj(ptr noundef nonnull align 8 dereferenceable(8) %31, i32 noundef %32)
  store i32 %30, ptr %33, align 4, !tbaa !8
  %34 = load i32, ptr %8, align 4, !tbaa !8
  %35 = getelementptr inbounds nuw %class.permutation, ptr %9, i32 0, i32 1
  %36 = getelementptr inbounds nuw %class.permutation, ptr %9, i32 0, i32 0
  %37 = load i32, ptr %8, align 4, !tbaa !8
  %38 = call noundef nonnull align 4 dereferenceable(4) ptr @_ZN6vectorIjLb0EjEixEj(ptr noundef nonnull align 8 dereferenceable(8) %36, i32 noundef %37)
  %39 = load i32, ptr %38, align 4, !tbaa !8
  %40 = call noundef nonnull align 4 dereferenceable(4) ptr @_ZN6vectorIjLb0EjEixEj(ptr noundef nonnull align 8 dereferenceable(8) %35, i32 noundef %39)
  store i32 %34, ptr %40, align 4, !tbaa !8
  br label %41

41:                                               ; preds = %25
  %42 = load i32, ptr %8, align 4, !tbaa !8
  %43 = add i32 %42, 1
  store i32 %43, ptr %8, align 4, !tbaa !8
  br label %20, !llvm.loop !20

44:                                               ; preds = %24
  %45 = load i32, ptr %7, align 4, !tbaa !8
  %46 = getelementptr inbounds nuw %class.permutation, ptr %9, i32 0, i32 0
  %47 = load i32, ptr %6, align 4, !tbaa !8
  %48 = call noundef nonnull align 4 dereferenceable(4) ptr @_ZN6vectorIjLb0EjEixEj(ptr noundef nonnull align 8 dereferenceable(8) %46, i32 noundef %47)
  store i32 %45, ptr %48, align 4, !tbaa !8
  %49 = load i32, ptr %6, align 4, !tbaa !8
  %50 = getelementptr inbounds nuw %class.permutation, ptr %9, i32 0, i32 1
  %51 = load i32, ptr %7, align 4, !tbaa !8
  %52 = call noundef nonnull align 4 dereferenceable(4) ptr @_ZN6vectorIjLb0EjEixEj(ptr noundef nonnull align 8 dereferenceable(8) %50, i32 noundef %51)
  store i32 %49, ptr %52, align 4, !tbaa !8
  call void @llvm.lifetime.end.p0(i64 4, ptr %7) #3
  br label %53

53:                                               ; preds = %44, %13
  ret void
}