; Function Attrs: mustprogress nofree norecurse nosync nounwind memory(readwrite, inaccessiblemem: none) uwtable
define hidden void @_ZN11permutation10move_afterEjj(ptr noundef nonnull readonly align 8 captures(none) dereferenceable(16) %0, i32 noundef %1, i32 noundef %2) local_unnamed_addr #9 align 2 {
  %.not = icmp ult i32 %1, %2
  br i1 %.not, label %4, label %22

4:                                                ; preds = %3
  %5 = load ptr, ptr %0, align 8, !tbaa !3
  %6 = zext i32 %1 to i64
  %7 = getelementptr inbounds nuw i32, ptr %5, i64 %6
  %8 = load i32, ptr %7, align 4, !tbaa !9
  %9 = getelementptr inbounds nuw i8, ptr %0, i64 8
  %10 = load ptr, ptr %9, align 8, !tbaa !3
  %wide.trip.count = zext i32 %2 to i64
  br label %15

11:                                               ; preds = %15
  %12 = getelementptr inbounds nuw i32, ptr %5, i64 %wide.trip.count
  store i32 %8, ptr %12, align 4, !tbaa !9
  %13 = zext i32 %8 to i64
  %14 = getelementptr inbounds nuw i32, ptr %10, i64 %13
  store i32 %2, ptr %14, align 4, !tbaa !9
  br label %22

15:                                               ; preds = %4, %15
  %indvars.iv = phi i64 [ %6, %4 ], [ %indvars.iv.next, %15 ]
  %indvars.iv.next = add nuw nsw i64 %indvars.iv, 1
  %16 = getelementptr inbounds nuw i32, ptr %5, i64 %indvars.iv.next
  %17 = load i32, ptr %16, align 4, !tbaa !9
  %18 = getelementptr inbounds nuw i32, ptr %5, i64 %indvars.iv
  store i32 %17, ptr %18, align 4, !tbaa !9
  %19 = zext i32 %17 to i64
  %20 = getelementptr inbounds nuw i32, ptr %10, i64 %19
  %21 = trunc nuw i64 %indvars.iv to i32
  store i32 %21, ptr %20, align 4, !tbaa !9
  %exitcond.not = icmp eq i64 %indvars.iv.next, %wide.trip.count
  br i1 %exitcond.not, label %11, label %15, !llvm.loop !13

22:                                               ; preds = %3, %11
  ret void
}